; Function Attrs: mustprogress uwtable
define void @_ZNK6casadi13BSplineCommon10ad_reverseERKSt6vectorIS1_INS_2MXESaIS2_EESaIS4_EERS6_(ptr noundef nonnull align 8 dereferenceable(232) %0, ptr nocapture noundef nonnull readonly align 8 dereferenceable(24) %1, ptr nocapture noundef nonnull readonly align 8 dereferenceable(24) %2) unnamed_addr #3 align 2 personality ptr @__gxx_personality_v0 {
  %4 = alloca %"class.casadi::MX", align 8
  %5 = alloca %"class.casadi::MX", align 8
  %6 = alloca %"class.casadi::MX", align 8
  %7 = alloca %"class.casadi::MX", align 8
  %8 = load ptr, ptr %0, align 8
  %9 = getelementptr inbounds i8, ptr %8, i64 848
  %10 = load ptr, ptr %9, align 8
  call void %10(ptr dead_on_unwind nonnull writable sret(%"class.casadi::MX") align 8 %6, ptr noundef nonnull align 8 dereferenceable(232) %0)
  invoke void @_ZNK6casadi2MX1TEv(ptr dead_on_unwind nonnull writable sret(%"class.casadi::MX") align 8 %5, ptr noundef nonnull align 8 dereferenceable(8) %6)
          to label %11 unwind label %33

11:                                               ; preds = %3
  call void @_ZN6casadi2MXD1Ev(ptr noundef nonnull align 8 dereferenceable(8) %6) #23
  %12 = getelementptr inbounds i8, ptr %1, i64 8
  %13 = load ptr, ptr %12, align 8
  %14 = load ptr, ptr %1, align 8
  %.not = icmp eq ptr %13, %14
  br i1 %.not, label %._crit_edge, label %.lr.ph

.lr.ph:                                           ; preds = %11, %24
  %15 = phi ptr [ %27, %24 ], [ %14, %11 ]
  %.014 = phi i64 [ %25, %24 ], [ 0, %11 ]
  %16 = getelementptr inbounds %"class.std::vector.3", ptr %15, i64 %.014
  %17 = load ptr, ptr %16, align 8
  invoke void @_ZN6casadi2MX6mtimesERKS0_S2_(ptr dead_on_unwind nonnull writable sret(%"class.casadi::MX") align 8 %7, ptr noundef nonnull align 8 dereferenceable(8) %5, ptr noundef nonnull align 8 dereferenceable(8) %17)
          to label %_ZN6casadi6mtimesERKNS_2MXES2_.exit unwind label %35

_ZN6casadi6mtimesERKNS_2MXES2_.exit:              ; preds = %.lr.ph
  %18 = load ptr, ptr %2, align 8
  %19 = getelementptr inbounds %"class.std::vector.3", ptr %18, i64 %.014
  %20 = load ptr, ptr %19, align 8
  call void @llvm.lifetime.start.p0(i64 8, ptr nonnull %4)
  invoke void @_ZN6casadi2MX6binaryExRKS0_S2_(ptr dead_on_unwind nonnull writable sret(%"class.casadi::MX") align 8 %4, i64 noundef 1, ptr noundef nonnull align 8 dereferenceable(8) %20, ptr noundef nonnull align 8 dereferenceable(8) %7)
          to label %.noexc unwind label %37

.noexc:                                           ; preds = %_ZN6casadi6mtimesERKNS_2MXES2_.exit
  %21 = invoke noundef nonnull align 8 dereferenceable(8) ptr @_ZN6casadi12SharedObjectaSERKS0_(ptr noundef nonnull align 8 dereferenceable(8) %20, ptr noundef nonnull align 8 dereferenceable(8) %4)
          to label %24 unwind label %22

22:                                               ; preds = %.noexc
  %23 = landingpad { ptr, i32 }
          cleanup
  call void @_ZN6casadi2MXD1Ev(ptr noundef nonnull align 8 dereferenceable(8) %4) #23
  br label %.body

24:                                               ; preds = %.noexc
  call void @_ZN6casadi2MXD1Ev(ptr noundef nonnull align 8 dereferenceable(8) %4) #23
  call void @llvm.lifetime.end.p0(i64 8, ptr nonnull %4)
  call void @_ZN6casadi2MXD1Ev(ptr noundef nonnull align 8 dereferenceable(8) %7) #23
  %25 = add nuw nsw i64 %.014, 1
  %26 = load ptr, ptr %12, align 8
  %27 = load ptr, ptr %1, align 8
  %28 = ptrtoint ptr %26 to i64
  %29 = ptrtoint ptr %27 to i64
  %30 = sub i64 %28, %29
  %31 = sdiv exact i64 %30, 24
  %32 = icmp ult i64 %25, %31
  br i1 %32, label %.lr.ph, label %._crit_edge, !llvm.loop !99

33:                                               ; preds = %3
  %34 = landingpad { ptr, i32 }
          cleanup
  br label %39

35:                                               ; preds = %.lr.ph
  %36 = landingpad { ptr, i32 }
          cleanup
  br label %39

37:                                               ; preds = %_ZN6casadi6mtimesERKNS_2MXES2_.exit
  %38 = landingpad { ptr, i32 }
          cleanup
  br label %.body

.body:                                            ; preds = %22, %37
  %eh.lpad-body = phi { ptr, i32 } [ %38, %37 ], [ %23, %22 ]
  call void @_ZN6casadi2MXD1Ev(ptr noundef nonnull align 8 dereferenceable(8) %7) #23
  br label %39

._crit_edge:                                      ; preds = %24, %11
  call void @_ZN6casadi2MXD1Ev(ptr noundef nonnull align 8 dereferenceable(8) %5) #23
  ret void

39:                                               ; preds = %35, %.body, %33
  %.sink = phi ptr [ %6, %33 ], [ %5, %.body ], [ %5, %35 ]
  %.pn.pn = phi { ptr, i32 } [ %34, %33 ], [ %eh.lpad-body, %.body ], [ %36, %35 ]
  call void @_ZN6casadi2MXD1Ev(ptr noundef nonnull align 8 dereferenceable(8) %.sink) #23
  resume { ptr, i32 } %.pn.pn
}